; Function Attrs: nofree nosync nounwind memory(readwrite, inaccessiblemem: none) uwtable
define dso_local void @Ppmd8_Update2(ptr noundef %0) local_unnamed_addr #8 {
  %2 = load ptr, ptr %0, align 8, !tbaa !36
  %3 = getelementptr inbounds nuw i8, ptr %2, i64 2
  %4 = load i16, ptr %3, align 1, !tbaa !41
  %5 = add i16 %4, 4
  store i16 %5, ptr %3, align 1, !tbaa !41
  %6 = getelementptr inbounds nuw i8, ptr %0, i64 16
  %7 = load ptr, ptr %6, align 8, !tbaa !42
  %8 = getelementptr inbounds nuw i8, ptr %7, i64 1
  %9 = load i8, ptr %8, align 1, !tbaa !47
  %10 = add i8 %9, 4
  store i8 %10, ptr %8, align 1, !tbaa !47
  %11 = icmp ugt i8 %10, 124
  br i1 %11, label %12, label %13

12:                                               ; preds = %1
  tail call fastcc void @Rescale(ptr noundef nonnull %0)
  br label %13

13:                                               ; preds = %12, %1
  %14 = getelementptr inbounds nuw i8, ptr %0, i64 44
  %15 = load i32, ptr %14, align 4, !tbaa !31
  %16 = getelementptr inbounds nuw i8, ptr %0, i64 40
  store i32 %15, ptr %16, align 8, !tbaa !32
  tail call fastcc void @UpdateModel(ptr noundef nonnull %0)
  %17 = getelementptr inbounds nuw i8, ptr %0, i64 8
  %18 = load ptr, ptr %17, align 8, !tbaa !35
  store ptr %18, ptr %0, align 8, !tbaa !36
  ret void
}